target datalayout = "e-m:e-p270:32:32-p271:32:32-p272:64:64-i64:64-i128:128-f80:128-n8:16:32:64-S128"
target triple = "x86_64-pc-linux-gnu"

%struct.png_struct_def = type { [1 x %struct.__jmp_buf_tag], ptr, ptr, i64, ptr, ptr, ptr, ptr, ptr, ptr, ptr, ptr, i8, i8, i32, i32, i32, i32, %struct.z_stream_s, i32, i32, i32, i32, i64, i32, i32, i32, ptr, ptr, i64, i32, i32, ptr, i16, i32, i16, i8, i8, i8, i8, i8, i8, i8, i8, i8, i8, i8, i8, i8, i8, i16, i8, i32, %struct.png_color_16_struct, %struct.png_color_16_struct, i32, i32, ptr, ptr, ptr, ptr, ptr, ptr, %struct.png_color_8_struct, %struct.png_color_8_struct, ptr, %struct.png_color_16_struct, ptr, ptr, ptr, ptr, ptr, ptr, ptr, ptr, ptr, i32, i32, i64, i64, i64, i64, i32, i32, ptr, ptr, [29 x i8], i32, ptr, ptr, i32, i32, ptr, i8, i8, i16, i16, ptr, i32, i8, ptr, ptr, ptr, ptr, ptr, ptr, ptr, i8, i32, i32, i32, i64, %struct.png_unknown_chunk_t, i64, ptr, i64, i32, i32, ptr, [4 x ptr], %struct.png_colorspace }
%struct.__jmp_buf_tag = type { [8 x i64], i32, %struct.__sigset_t }
%struct.__sigset_t = type { [16 x i64] }
%struct.z_stream_s = type { ptr, i32, i64, ptr, i32, i64, ptr, ptr, ptr, ptr, ptr, i32, i64, i64 }
%struct.png_color_8_struct = type { i8, i8, i8, i8, i8 }
%struct.png_color_16_struct = type { i8, i16, i16, i16, i16 }
%struct.png_unknown_chunk_t = type { [5 x i8], ptr, i64, i8 }
%struct.png_colorspace = type { i32, %struct.png_xy, %struct.png_XYZ, i16, i16 }
%struct.png_xy = type { i32, i32, i32, i32, i32, i32, i32, i32 }
%struct.png_XYZ = type { i32, i32, i32, i32, i32, i32, i32, i32, i32 }
%struct.png_info_def = type { i32, i32, i32, i64, ptr, i16, i16, i8, i8, i8, i8, i8, i8, i8, i8, [8 x i8], %struct.png_colorspace, ptr, ptr, i32, i32, i32, ptr, %struct.png_time_struct, %struct.png_color_8_struct, ptr, %struct.png_color_16_struct, %struct.png_color_16_struct, i32, i32, i8, i32, i32, i8, ptr, ptr, i32, i32, ptr, ptr, i8, i8, i32, ptr, i32, ptr, i32, i8, ptr, ptr, ptr }
%struct.png_time_struct = type { i16, i8, i8, i8, i8, i8 }

@.str.5 = private unnamed_addr constant [13 x i8] c"out of place\00", align 1
@.str.6 = private unnamed_addr constant [8 x i8] c"invalid\00", align 1
@.str.7 = private unnamed_addr constant [13 x i8] c"missing IHDR\00", align 1
@.str.8 = private unnamed_addr constant [10 x i8] c"duplicate\00", align 1

; Function Attrs: nounwind uwtable
define hidden void @png_crc_read(ptr noalias noundef %0, ptr noundef %1, i32 noundef %2) #0 {
  %4 = alloca ptr, align 8
  %5 = alloca ptr, align 8
  %6 = alloca i32, align 4
  store ptr %0, ptr %4, align 8
  store ptr %1, ptr %5, align 8
  store i32 %2, ptr %6, align 4
  %7 = load ptr, ptr %4, align 8
  %8 = icmp eq ptr %7, null
  br i1 %8, label %9, label %10

9:                                                ; preds = %3
  br label %19

10:                                               ; preds = %3
  %11 = load ptr, ptr %4, align 8
  %12 = load ptr, ptr %5, align 8
  %13 = load i32, ptr %6, align 4
  %14 = zext i32 %13 to i64
  call void @png_read_data(ptr noundef %11, ptr noundef %12, i64 noundef %14)
  %15 = load ptr, ptr %4, align 8
  %16 = load ptr, ptr %5, align 8
  %17 = load i32, ptr %6, align 4
  %18 = zext i32 %17 to i64
  call void @png_calculate_crc(ptr noundef %15, ptr noundef %16, i64 noundef %18)
  br label %19

19:                                               ; preds = %10, %9
  ret void
}

; Function Attrs: nounwind uwtable
define hidden void @png_handle_hIST(ptr noalias noundef %0, ptr noalias noundef %1, i32 noundef %2) #0 {
  %4 = alloca ptr, align 8
  %5 = alloca ptr, align 8
  %6 = alloca i32, align 4
  %7 = alloca i32, align 4
  %8 = alloca i32, align 4
  %9 = alloca [256 x i16], align 16
  %10 = alloca [2 x i8], align 1
  store ptr %0, ptr %4, align 8
  store ptr %1, ptr %5, align 8
  store i32 %2, ptr %6, align 4
  %11 = load ptr, ptr %4, align 8
  %12 = getelementptr inbounds %struct.png_struct_def, ptr %11, i32 0, i32 14
  %13 = load i32, ptr %12, align 4
  %14 = and i32 %13, 1
  %15 = icmp eq i32 %14, 0
  br i1 %15, label %16, label %18

16:                                               ; preds = %3
  %17 = load ptr, ptr %4, align 8
  call void @png_chunk_error(ptr noundef %17, ptr noundef @.str.7) #6
  unreachable

18:                                               ; preds = %3
  %19 = load ptr, ptr %4, align 8
  %20 = getelementptr inbounds %struct.png_struct_def, ptr %19, i32 0, i32 14
  %21 = load i32, ptr %20, align 4
  %22 = and i32 %21, 4
  %23 = icmp ne i32 %22, 0
  br i1 %23, label %30, label %24

24:                                               ; preds = %18
  %25 = load ptr, ptr %4, align 8
  %26 = getelementptr inbounds %struct.png_struct_def, ptr %25, i32 0, i32 14
  %27 = load i32, ptr %26, align 4
  %28 = and i32 %27, 2
  %29 = icmp eq i32 %28, 0
  br i1 %29, label %30, label %35

30:                                               ; preds = %24, %18
  %31 = load ptr, ptr %4, align 8
  %32 = load i32, ptr %6, align 4
  %33 = call i32 @png_crc_finish(ptr noundef %31, i32 noundef %32)
  %34 = load ptr, ptr %4, align 8
  call void @png_chunk_benign_error(ptr noundef %34, ptr noundef @.str.5)
  br label %106

35:                                               ; preds = %24
  %36 = load ptr, ptr %5, align 8
  %37 = icmp ne ptr %36, null
  br i1 %37, label %38, label %49

38:                                               ; preds = %35
  %39 = load ptr, ptr %5, align 8
  %40 = getelementptr inbounds %struct.png_info_def, ptr %39, i32 0, i32 2
  %41 = load i32, ptr %40, align 8
  %42 = and i32 %41, 64
  %43 = icmp ne i32 %42, 0
  br i1 %43, label %44, label %49

44:                                               ; preds = %38
  %45 = load ptr, ptr %4, align 8
  %46 = load i32, ptr %6, align 4
  %47 = call i32 @png_crc_finish(ptr noundef %45, i32 noundef %46)
  %48 = load ptr, ptr %4, align 8
  call void @png_chunk_benign_error(ptr noundef %48, ptr noundef @.str.8)
  br label %106

49:                                               ; preds = %38, %35
  br label %50

50:                                               ; preds = %49
  br label %51

51:                                               ; preds = %50
  %52 = load i32, ptr %6, align 4
  %53 = udiv i32 %52, 2
  store i32 %53, ptr %7, align 4
  %54 = load i32, ptr %6, align 4
  %55 = load i32, ptr %7, align 4
  %56 = mul i32 %55, 2
  %57 = icmp ne i32 %54, %56
  br i1 %57, label %68, label %58

58:                                               ; preds = %51
  %59 = load i32, ptr %7, align 4
  %60 = load ptr, ptr %4, align 8
  %61 = getelementptr inbounds %struct.png_struct_def, ptr %60, i32 0, i32 33
  %62 = load i16, ptr %61, align 8
  %63 = zext i16 %62 to i32
  %64 = icmp ne i32 %59, %63
  br i1 %64, label %68, label %65

65:                                               ; preds = %58
  %66 = load i32, ptr %7, align 4
  %67 = icmp ugt i32 %66, 256
  br i1 %67, label %68, label %73

68:                                               ; preds = %65, %58, %51
  %69 = load ptr, ptr %4, align 8
  %70 = load i32, ptr %6, align 4
  %71 = call i32 @png_crc_finish(ptr noundef %69, i32 noundef %70)
  %72 = load ptr, ptr %4, align 8
  call void @png_chunk_benign_error(ptr noundef %72, ptr noundef @.str.6)
  br label %106

73:                                               ; preds = %65
  store i32 0, ptr %8, align 4
  br label %74

74:                                               ; preds = %94, %73
  %75 = load i32, ptr %8, align 4
  %76 = load i32, ptr %7, align 4
  %77 = icmp ult i32 %75, %76
  br i1 %77, label %78, label %97

78:                                               ; preds = %74
  %79 = load ptr, ptr %4, align 8
  %80 = getelementptr inbounds [2 x i8], ptr %10, i64 0, i64 0
  call void @png_crc_read(ptr noundef %79, ptr noundef %80, i32 noundef 2)
  %81 = getelementptr inbounds [2 x i8], ptr %10, i64 0, i64 0
  %82 = load i8, ptr %81, align 1
  %83 = zext i8 %82 to i32
  %84 = shl i32 %83, 8
  %85 = getelementptr inbounds [2 x i8], ptr %10, i64 0, i64 0
  %86 = getelementptr inbounds i8, ptr %85, i64 1
  %87 = load i8, ptr %86, align 1
  %88 = zext i8 %87 to i32
  %89 = add i32 %84, %88
  %90 = trunc i32 %89 to i16
  %91 = load i32, ptr %8, align 4
  %92 = zext i32 %91 to i64
  %93 = getelementptr inbounds [256 x i16], ptr %9, i64 0, i64 %92
  store i16 %90, ptr %93, align 2
  br label %94

94:                                               ; preds = %78
  %95 = load i32, ptr %8, align 4
  %96 = add i32 %95, 1
  store i32 %96, ptr %8, align 4
  br label %74, !llvm.loop !13

97:                                               ; preds = %74
  %98 = load ptr, ptr %4, align 8
  %99 = call i32 @png_crc_finish(ptr noundef %98, i32 noundef 0)
  %100 = icmp ne i32 %99, 0
  br i1 %100, label %101, label %102

101:                                              ; preds = %97
  br label %106

102:                                              ; preds = %97
  %103 = load ptr, ptr %4, align 8
  %104 = load ptr, ptr %5, align 8
  %105 = getelementptr inbounds [256 x i16], ptr %9, i64 0, i64 0
  call void @png_set_hIST(ptr noundef %103, ptr noundef %104, ptr noundef %105)
  br label %106

106:                                              ; preds = %102, %101, %68, %44, %30
  ret void
}