; Function Attrs: nounwind uwtable
define hidden void @png_handle_hIST(ptr noalias noundef %0, ptr noalias noundef %1, i32 noundef %2) local_unnamed_addr #0 {
  %4 = alloca [256 x i16], align 16
  %5 = alloca [2 x i8], align 1
  %6 = getelementptr inbounds i8, ptr %0, i64 292
  %7 = load i32, ptr %6, align 4
  %8 = and i32 %7, 1
  %9 = icmp eq i32 %8, 0
  br i1 %9, label %10, label %11

10:                                               ; preds = %3
  tail call void @png_chunk_error(ptr noundef nonnull %0, ptr noundef nonnull @.str.7) #11
  unreachable

11:                                               ; preds = %3
  %12 = and i32 %7, 6
  %or.cond36.not = icmp eq i32 %12, 2
  br i1 %or.cond36.not, label %15, label %13

13:                                               ; preds = %11
  %14 = tail call i32 @png_crc_finish(ptr noundef nonnull %0, i32 noundef %2)
  tail call void @png_chunk_benign_error(ptr noundef nonnull %0, ptr noundef nonnull @.str.5) #12
  br label %43

15:                                               ; preds = %11
  %.not31 = icmp eq ptr %1, null
  br i1 %.not31, label %22, label %16

16:                                               ; preds = %15
  %17 = getelementptr inbounds i8, ptr %1, i64 8
  %18 = load i32, ptr %17, align 8
  %19 = and i32 %18, 64
  %.not32 = icmp eq i32 %19, 0
  br i1 %.not32, label %22, label %20

20:                                               ; preds = %16
  %21 = tail call i32 @png_crc_finish(ptr noundef nonnull %0, i32 noundef %2)
  tail call void @png_chunk_benign_error(ptr noundef nonnull %0, ptr noundef nonnull @.str.8) #12
  br label %43

22:                                               ; preds = %16, %15
  %23 = lshr i32 %2, 1
  %24 = and i32 %2, 1
  %.not33 = icmp eq i32 %24, 0
  br i1 %.not33, label %25, label %32

25:                                               ; preds = %22
  %26 = getelementptr inbounds i8, ptr %0, i64 504
  %27 = load i16, ptr %26, align 8
  %28 = zext i16 %27 to i32
  %29 = icmp ne i32 %23, %28
  %30 = icmp ugt i32 %2, 513
  %or.cond = or i1 %30, %29
  br i1 %or.cond, label %32, label %.preheader

.preheader:                                       ; preds = %25
  %.not = icmp ult i32 %2, 2
  br i1 %.not, label %._crit_edge, label %png_crc_read.exit.preheader

png_crc_read.exit.preheader:                      ; preds = %.preheader
  %31 = getelementptr inbounds i8, ptr %5, i64 1
  %wide.trip.count = zext nneg i32 %23 to i64
  br label %png_crc_read.exit

32:                                               ; preds = %25, %22
  %33 = tail call i32 @png_crc_finish(ptr noundef nonnull %0, i32 noundef %2)
  tail call void @png_chunk_benign_error(ptr noundef nonnull %0, ptr noundef nonnull @.str.6) #12
  br label %43

png_crc_read.exit:                                ; preds = %png_crc_read.exit.preheader, %png_crc_read.exit
  %indvars.iv = phi i64 [ 0, %png_crc_read.exit.preheader ], [ %indvars.iv.next, %png_crc_read.exit ]
  call void @png_read_data(ptr noundef nonnull %0, ptr noundef nonnull %5, i64 noundef 2) #12
  call void @png_calculate_crc(ptr noundef nonnull %0, ptr noundef nonnull %5, i64 noundef 2) #12
  %34 = load i8, ptr %5, align 1
  %35 = zext i8 %34 to i16
  %36 = shl nuw i16 %35, 8
  %37 = load i8, ptr %31, align 1
  %38 = zext i8 %37 to i16
  %39 = or disjoint i16 %36, %38
  %40 = getelementptr inbounds [256 x i16], ptr %4, i64 0, i64 %indvars.iv
  store i16 %39, ptr %40, align 2
  %indvars.iv.next = add nuw nsw i64 %indvars.iv, 1
  %exitcond.not = icmp eq i64 %indvars.iv.next, %wide.trip.count
  br i1 %exitcond.not, label %._crit_edge, label %png_crc_read.exit, !llvm.loop !31

._crit_edge:                                      ; preds = %png_crc_read.exit, %.preheader
  %41 = call i32 @png_crc_finish(ptr noundef %0, i32 noundef 0)
  %.not34 = icmp eq i32 %41, 0
  br i1 %.not34, label %42, label %43

42:                                               ; preds = %._crit_edge
  call void @png_set_hIST(ptr noundef %0, ptr noundef %1, ptr noundef nonnull %4) #12
  br label %43

43:                                               ; preds = %._crit_edge, %42, %32, %20, %13
  ret void
}